target datalayout = "e-m:e-p270:32:32-p271:32:32-p272:64:64-i64:64-i128:128-f80:128-n8:16:32:64-S128"
target triple = "x86_64-pc-linux-gnu"

%"struct.Minisat::Lit" = type { i32 }
%"class.Minisat::vec.2" = type { ptr, i32, i32 }
%"class.Minisat::Clause" = type { %struct.anon, [0 x %union.anon] }
%struct.anon = type { i32 }
%union.anon = type { %"struct.Minisat::Lit" }

@_ZTIN7Minisat20OutOfMemoryExceptionE = linkonce_odr constant { ptr, ptr } { ptr getelementptr inbounds (ptr, ptr @_ZTVN10__cxxabiv117__class_type_infoE, i64 2), ptr @_ZTSN7Minisat20OutOfMemoryExceptionE }, comdat, align 8

; Function Attrs: mustprogress nounwind uwtable
define linkonce_odr noundef i32 @_ZN7Minisat3vecIjiE3maxEii(i32 noundef %0, i32 noundef %1) #1 comdat align 2 {
  %3 = alloca i32, align 4
  %4 = alloca i32, align 4
  store i32 %0, ptr %3, align 4
  store i32 %1, ptr %4, align 4
  %5 = load i32, ptr %3, align 4
  %6 = load i32, ptr %4, align 4
  %7 = icmp sgt i32 %5, %6
  br i1 %7, label %8, label %10

8:                                                ; preds = %2
  %9 = load i32, ptr %3, align 4
  br label %12

10:                                               ; preds = %2
  %11 = load i32, ptr %4, align 4
  br label %12

12:                                               ; preds = %10, %8
  %13 = phi i32 [ %9, %8 ], [ %11, %10 ]
  ret i32 %13
}

; Function Attrs: mustprogress uwtable
define linkonce_odr void @_ZN7Minisat3vecIjiE8capacityEi(ptr noundef nonnull align 8 dereferenceable(16) %0, i32 noundef %1) #2 comdat align 2 {
  %3 = alloca ptr, align 8
  %4 = alloca i32, align 4
  %5 = alloca i32, align 4
  %6 = alloca i32, align 4
  store ptr %0, ptr %3, align 8
  store i32 %1, ptr %4, align 4
  %7 = load ptr, ptr %3, align 8
  %8 = getelementptr inbounds %"class.Minisat::vec.2", ptr %7, i32 0, i32 2
  %9 = load i32, ptr %8, align 4
  %10 = load i32, ptr %4, align 4
  %11 = icmp sge i32 %9, %10
  br i1 %11, label %12, label %13

12:                                               ; preds = %2
  br label %49

13:                                               ; preds = %2
  %14 = load i32, ptr %4, align 4
  %15 = getelementptr inbounds %"class.Minisat::vec.2", ptr %7, i32 0, i32 2
  %16 = load i32, ptr %15, align 4
  %17 = sub nsw i32 %14, %16
  %18 = add nsw i32 %17, 1
  %19 = and i32 %18, -2
  %20 = getelementptr inbounds %"class.Minisat::vec.2", ptr %7, i32 0, i32 2
  %21 = load i32, ptr %20, align 4
  %22 = ashr i32 %21, 1
  %23 = add nsw i32 %22, 2
  %24 = and i32 %23, -2
  %25 = call noundef i32 @_ZN7Minisat3vecIjiE3maxEii(i32 noundef %19, i32 noundef %24)
  store i32 %25, ptr %5, align 4
  store i32 2147483647, ptr %6, align 4
  %26 = load i32, ptr %5, align 4
  %27 = getelementptr inbounds %"class.Minisat::vec.2", ptr %7, i32 0, i32 2
  %28 = load i32, ptr %27, align 4
  %29 = sub nsw i32 2147483647, %28
  %30 = icmp sgt i32 %26, %29
  br i1 %30, label %47, label %31

31:                                               ; preds = %13
  %32 = getelementptr inbounds %"class.Minisat::vec.2", ptr %7, i32 0, i32 0
  %33 = load ptr, ptr %32, align 8
  %34 = load i32, ptr %5, align 4
  %35 = getelementptr inbounds %"class.Minisat::vec.2", ptr %7, i32 0, i32 2
  %36 = load i32, ptr %35, align 4
  %37 = add nsw i32 %36, %34
  store i32 %37, ptr %35, align 4
  %38 = sext i32 %37 to i64
  %39 = mul i64 %38, 4
  %40 = call ptr @realloc(ptr noundef %33, i64 noundef %39) #17
  %41 = getelementptr inbounds %"class.Minisat::vec.2", ptr %7, i32 0, i32 0
  store ptr %40, ptr %41, align 8
  %42 = icmp eq ptr %40, null
  br i1 %42, label %43, label %49

43:                                               ; preds = %31
  %44 = call ptr @__errno_location() #18
  %45 = load i32, ptr %44, align 4
  %46 = icmp eq i32 %45, 12
  br i1 %46, label %47, label %49

47:                                               ; preds = %43, %13
  %48 = call ptr @__cxa_allocate_exception(i64 1) #3
  call void @__cxa_throw(ptr %48, ptr @_ZTIN7Minisat20OutOfMemoryExceptionE, ptr null) #19
  unreachable

49:                                               ; preds = %43, %31, %12
  ret void
}

; Function Attrs: mustprogress nounwind uwtable
define linkonce_odr noundef nonnull align 4 dereferenceable(4) ptr @_ZN7Minisat3vecIjiEixEi(ptr noundef nonnull align 8 dereferenceable(16) %0, i32 noundef %1) #1 comdat align 2 {
  %3 = alloca ptr, align 8
  %4 = alloca i32, align 4
  store ptr %0, ptr %3, align 8
  store i32 %1, ptr %4, align 4
  %5 = load ptr, ptr %3, align 8
  %6 = getelementptr inbounds %"class.Minisat::vec.2", ptr %5, i32 0, i32 0
  %7 = load ptr, ptr %6, align 8
  %8 = load i32, ptr %4, align 4
  %9 = sext i32 %8 to i64
  %10 = getelementptr inbounds i32, ptr %7, i64 %9
  ret ptr %10
}

; Function Attrs: mustprogress nounwind uwtable
define linkonce_odr noundef i32 @_ZN7Minisat3varENS_3LitE(i32 %0) #1 comdat {
  %2 = alloca %"struct.Minisat::Lit", align 4
  %3 = getelementptr inbounds %"struct.Minisat::Lit", ptr %2, i32 0, i32 0
  store i32 %0, ptr %3, align 4
  %4 = getelementptr inbounds %"struct.Minisat::Lit", ptr %2, i32 0, i32 0
  %5 = load i32, ptr %4, align 4
  %6 = ashr i32 %5, 1
  ret i32 %6
}

; Function Attrs: mustprogress uwtable
define linkonce_odr void @_ZN7Minisat3vecIjiE4pushERKj(ptr noundef nonnull align 8 dereferenceable(16) %0, ptr noundef nonnull align 4 dereferenceable(4) %1) #2 comdat align 2 {
  %3 = alloca ptr, align 8
  %4 = alloca ptr, align 8
  store ptr %0, ptr %3, align 8
  store ptr %1, ptr %4, align 8
  %5 = load ptr, ptr %3, align 8
  %6 = getelementptr inbounds %"class.Minisat::vec.2", ptr %5, i32 0, i32 1
  %7 = load i32, ptr %6, align 8
  %8 = getelementptr inbounds %"class.Minisat::vec.2", ptr %5, i32 0, i32 2
  %9 = load i32, ptr %8, align 4
  %10 = icmp eq i32 %7, %9
  br i1 %10, label %11, label %15

11:                                               ; preds = %2
  %12 = getelementptr inbounds %"class.Minisat::vec.2", ptr %5, i32 0, i32 1
  %13 = load i32, ptr %12, align 8
  %14 = add nsw i32 %13, 1
  call void @_ZN7Minisat3vecIjiE8capacityEi(ptr noundef nonnull align 8 dereferenceable(16) %5, i32 noundef %14)
  br label %15

15:                                               ; preds = %11, %2
  %16 = getelementptr inbounds %"class.Minisat::vec.2", ptr %5, i32 0, i32 0
  %17 = load ptr, ptr %16, align 8
  %18 = getelementptr inbounds %"class.Minisat::vec.2", ptr %5, i32 0, i32 1
  %19 = load i32, ptr %18, align 8
  %20 = add nsw i32 %19, 1
  store i32 %20, ptr %18, align 8
  %21 = sext i32 %19 to i64
  %22 = getelementptr inbounds i32, ptr %17, i64 %21
  %23 = load ptr, ptr %4, align 8
  %24 = load i32, ptr %23, align 4
  store i32 %24, ptr %22, align 4
  ret void
}

; Function Attrs: mustprogress nounwind uwtable
define linkonce_odr noundef i32 @_ZN7Minisat5toIntENS_3LitE(i32 %0) #1 comdat {
  %2 = alloca %"struct.Minisat::Lit", align 4
  %3 = getelementptr inbounds %"struct.Minisat::Lit", ptr %2, i32 0, i32 0
  store i32 %0, ptr %3, align 4
  %4 = getelementptr inbounds %"struct.Minisat::Lit", ptr %2, i32 0, i32 0
  %5 = load i32, ptr %4, align 4
  ret i32 %5
}

; Function Attrs: mustprogress nounwind uwtable
define linkonce_odr noundef nonnull align 4 dereferenceable(4) ptr @_ZN7Minisat6ClauseixEi(ptr noundef nonnull align 4 dereferenceable(4) %0, i32 noundef %1) #1 comdat align 2 {
  %3 = alloca ptr, align 8
  %4 = alloca i32, align 4
  store ptr %0, ptr %3, align 8
  store i32 %1, ptr %4, align 4
  %5 = load ptr, ptr %3, align 8
  %6 = getelementptr inbounds %"class.Minisat::Clause", ptr %5, i32 0, i32 1
  %7 = load i32, ptr %4, align 4
  %8 = sext i32 %7 to i64
  %9 = getelementptr inbounds [0 x %union.anon], ptr %6, i64 0, i64 %8
  ret ptr %9
}

; Function Attrs: mustprogress nounwind uwtable
define linkonce_odr noundef i32 @_ZNK7Minisat6Clause4sizeEv(ptr noundef nonnull align 4 dereferenceable(4) %0) #1 comdat align 2 {
  %2 = alloca ptr, align 8
  store ptr %0, ptr %2, align 8
  %3 = load ptr, ptr %2, align 8
  %4 = getelementptr inbounds %"class.Minisat::Clause", ptr %3, i32 0, i32 0
  %5 = load i32, ptr %4, align 4
  %6 = lshr i32 %5, 5
  ret i32 %6
}

; Function Attrs: mustprogress nounwind uwtable
define linkonce_odr noundef i32 @_ZNK7Minisat3vecIjiE4sizeEv(ptr noundef nonnull align 8 dereferenceable(16) %0) #1 comdat align 2 {
  %2 = alloca ptr, align 8
  store ptr %0, ptr %2, align 8
  %3 = load ptr, ptr %2, align 8
  %4 = getelementptr inbounds %"class.Minisat::vec.2", ptr %3, i32 0, i32 1
  %5 = load i32, ptr %4, align 8
  ret i32 %5
}

; Function Attrs: mustprogress uwtable
define internal void @_ZL12mkElimClauseRN7Minisat3vecIjiEEiRNS_6ClauseE(ptr noundef nonnull align 8 dereferenceable(16) %0, i32 noundef %1, ptr noundef nonnull align 4 dereferenceable(4) %2) #2 {
  %4 = alloca ptr, align 8
  %5 = alloca i32, align 4
  %6 = alloca ptr, align 8
  %7 = alloca i32, align 4
  %8 = alloca i32, align 4
  %9 = alloca i32, align 4
  %10 = alloca i32, align 4
  %11 = alloca %"struct.Minisat::Lit", align 4
  %12 = alloca %"struct.Minisat::Lit", align 4
  %13 = alloca i32, align 4
  %14 = alloca i32, align 4
  store ptr %0, ptr %4, align 8
  store i32 %1, ptr %5, align 4
  store ptr %2, ptr %6, align 8
  %15 = load ptr, ptr %4, align 8
  %16 = call noundef i32 @_ZNK7Minisat3vecIjiE4sizeEv(ptr noundef nonnull align 8 dereferenceable(16) %15)
  store i32 %16, ptr %7, align 4
  store i32 -1, ptr %8, align 4
  store i32 0, ptr %9, align 4
  br label %17

17:                                               ; preds = %43, %3
  %18 = load i32, ptr %9, align 4
  %19 = load ptr, ptr %6, align 8
  %20 = call noundef i32 @_ZNK7Minisat6Clause4sizeEv(ptr noundef nonnull align 4 dereferenceable(4) %19)
  %21 = icmp slt i32 %18, %20
  br i1 %21, label %22, label %46

22:                                               ; preds = %17
  %23 = load ptr, ptr %4, align 8
  %24 = load ptr, ptr %6, align 8
  %25 = load i32, ptr %9, align 4
  %26 = call noundef nonnull align 4 dereferenceable(4) ptr @_ZN7Minisat6ClauseixEi(ptr noundef nonnull align 4 dereferenceable(4) %24, i32 noundef %25)
  call void @llvm.memcpy.p0.p0.i64(ptr align 4 %11, ptr align 4 %26, i64 4, i1 false)
  %27 = getelementptr inbounds %"struct.Minisat::Lit", ptr %11, i32 0, i32 0
  %28 = load i32, ptr %27, align 4
  %29 = call noundef i32 @_ZN7Minisat5toIntENS_3LitE(i32 %28)
  store i32 %29, ptr %10, align 4
  call void @_ZN7Minisat3vecIjiE4pushERKj(ptr noundef nonnull align 8 dereferenceable(16) %23, ptr noundef nonnull align 4 dereferenceable(4) %10)
  %30 = load ptr, ptr %6, align 8
  %31 = load i32, ptr %9, align 4
  %32 = call noundef nonnull align 4 dereferenceable(4) ptr @_ZN7Minisat6ClauseixEi(ptr noundef nonnull align 4 dereferenceable(4) %30, i32 noundef %31)
  call void @llvm.memcpy.p0.p0.i64(ptr align 4 %12, ptr align 4 %32, i64 4, i1 false)
  %33 = getelementptr inbounds %"struct.Minisat::Lit", ptr %12, i32 0, i32 0
  %34 = load i32, ptr %33, align 4
  %35 = call noundef i32 @_ZN7Minisat3varENS_3LitE(i32 %34)
  %36 = load i32, ptr %5, align 4
  %37 = icmp eq i32 %35, %36
  br i1 %37, label %38, label %42

38:                                               ; preds = %22
  %39 = load i32, ptr %9, align 4
  %40 = load i32, ptr %7, align 4
  %41 = add nsw i32 %39, %40
  store i32 %41, ptr %8, align 4
  br label %42

42:                                               ; preds = %38, %22
  br label %43

43:                                               ; preds = %42
  %44 = load i32, ptr %9, align 4
  %45 = add nsw i32 %44, 1
  store i32 %45, ptr %9, align 4
  br label %17, !llvm.loop !47

46:                                               ; preds = %17
  %47 = load ptr, ptr %4, align 8
  %48 = load i32, ptr %8, align 4
  %49 = call noundef nonnull align 4 dereferenceable(4) ptr @_ZN7Minisat3vecIjiEixEi(ptr noundef nonnull align 8 dereferenceable(16) %47, i32 noundef %48)
  %50 = load i32, ptr %49, align 4
  store i32 %50, ptr %13, align 4
  %51 = load ptr, ptr %4, align 8
  %52 = load i32, ptr %7, align 4
  %53 = call noundef nonnull align 4 dereferenceable(4) ptr @_ZN7Minisat3vecIjiEixEi(ptr noundef nonnull align 8 dereferenceable(16) %51, i32 noundef %52)
  %54 = load i32, ptr %53, align 4
  %55 = load ptr, ptr %4, align 8
  %56 = load i32, ptr %8, align 4
  %57 = call noundef nonnull align 4 dereferenceable(4) ptr @_ZN7Minisat3vecIjiEixEi(ptr noundef nonnull align 8 dereferenceable(16) %55, i32 noundef %56)
  store i32 %54, ptr %57, align 4
  %58 = load i32, ptr %13, align 4
  %59 = load ptr, ptr %4, align 8
  %60 = load i32, ptr %7, align 4
  %61 = call noundef nonnull align 4 dereferenceable(4) ptr @_ZN7Minisat3vecIjiEixEi(ptr noundef nonnull align 8 dereferenceable(16) %59, i32 noundef %60)
  store i32 %58, ptr %61, align 4
  %62 = load ptr, ptr %4, align 8
  %63 = load ptr, ptr %6, align 8
  %64 = call noundef i32 @_ZNK7Minisat6Clause4sizeEv(ptr noundef nonnull align 4 dereferenceable(4) %63)
  store i32 %64, ptr %14, align 4
  call void @_ZN7Minisat3vecIjiE4pushERKj(ptr noundef nonnull align 8 dereferenceable(16) %62, ptr noundef nonnull align 4 dereferenceable(4) %14)
  ret void
}