; Function Attrs: mustprogress uwtable
define internal fastcc void @_ZL12mkElimClauseRN7Minisat3vecIjiEEiRNS_6ClauseE(ptr nocapture noundef nonnull align 8 dereferenceable(16) %0, i32 noundef %1, ptr nocapture noundef nonnull readonly align 4 dereferenceable(4) %2) unnamed_addr #2 {
  %4 = getelementptr inbounds i8, ptr %0, i64 8
  %5 = load i32, ptr %4, align 8
  %6 = load i32, ptr %2, align 4
  %.not = icmp ult i32 %6, 32
  br i1 %.not, label %._crit_edge, label %.lr.ph

.lr.ph:                                           ; preds = %3
  %7 = getelementptr inbounds i8, ptr %2, i64 4
  %8 = getelementptr inbounds i8, ptr %0, i64 12
  br label %9

9:                                                ; preds = %.lr.ph, %_ZN7Minisat3vecIjiE4pushERKj.exit
  %indvars.iv = phi i64 [ 0, %.lr.ph ], [ %indvars.iv.next, %_ZN7Minisat3vecIjiE4pushERKj.exit ]
  %.031 = phi i32 [ -1, %.lr.ph ], [ %spec.select, %_ZN7Minisat3vecIjiE4pushERKj.exit ]
  %10 = getelementptr inbounds [0 x %union.anon], ptr %7, i64 0, i64 %indvars.iv
  %.sroa.01.0.copyload = load i32, ptr %10, align 4
  %11 = load i32, ptr %4, align 8
  %12 = load i32, ptr %8, align 4
  %13 = icmp eq i32 %11, %12
  br i1 %13, label %14, label %._ZN7Minisat3vecIjiE8capacityEi.exit_crit_edge.i

._ZN7Minisat3vecIjiE8capacityEi.exit_crit_edge.i: ; preds = %9
  %.pre.i = load ptr, ptr %0, align 8
  br label %_ZN7Minisat3vecIjiE4pushERKj.exit

14:                                               ; preds = %9
  %15 = ashr i32 %11, 1
  %16 = and i32 %15, -2
  %17 = tail call i32 @llvm.smax.i32(i32 %16, i32 0)
  %18 = add nuw nsw i32 %17, 2
  %19 = sub nsw i32 2147483647, %11
  %20 = icmp ugt i32 %18, %19
  br i1 %20, label %.loopexit, label %21

21:                                               ; preds = %14
  %22 = load ptr, ptr %0, align 8
  %23 = add nsw i32 %18, %11
  store i32 %23, ptr %8, align 4
  %24 = sext i32 %23 to i64
  %25 = shl nsw i64 %24, 2
  %26 = tail call ptr @realloc(ptr noundef %22, i64 noundef %25) #26
  store ptr %26, ptr %0, align 8
  %27 = icmp eq ptr %26, null
  br i1 %27, label %28, label %._ZN7Minisat3vecIjiE4pushERKj.exit_crit_edge

._ZN7Minisat3vecIjiE4pushERKj.exit_crit_edge:     ; preds = %21
  %.pre = load i32, ptr %4, align 8
  br label %_ZN7Minisat3vecIjiE4pushERKj.exit

28:                                               ; preds = %21
  %29 = tail call ptr @__errno_location() #22
  %30 = load i32, ptr %29, align 4
  %31 = icmp eq i32 %30, 12
  tail call void @llvm.assume(i1 %31)
  br label %.loopexit

.loopexit:                                        ; preds = %14, %28
  %32 = tail call ptr @__cxa_allocate_exception(i64 1) #23
  tail call void @__cxa_throw(ptr %32, ptr nonnull @_ZTIN7Minisat20OutOfMemoryExceptionE, ptr null) #24
  unreachable

_ZN7Minisat3vecIjiE4pushERKj.exit:                ; preds = %._ZN7Minisat3vecIjiE4pushERKj.exit_crit_edge, %._ZN7Minisat3vecIjiE8capacityEi.exit_crit_edge.i
  %33 = phi i32 [ %11, %._ZN7Minisat3vecIjiE8capacityEi.exit_crit_edge.i ], [ %.pre, %._ZN7Minisat3vecIjiE4pushERKj.exit_crit_edge ]
  %34 = phi ptr [ %.pre.i, %._ZN7Minisat3vecIjiE8capacityEi.exit_crit_edge.i ], [ %26, %._ZN7Minisat3vecIjiE4pushERKj.exit_crit_edge ]
  %35 = add nsw i32 %33, 1
  store i32 %35, ptr %4, align 8
  %36 = sext i32 %33 to i64
  %37 = getelementptr inbounds i32, ptr %34, i64 %36
  store i32 %.sroa.01.0.copyload, ptr %37, align 4
  %.sroa.0.0.copyload = load i32, ptr %10, align 4
  %38 = ashr i32 %.sroa.0.0.copyload, 1
  %39 = icmp eq i32 %38, %1
  %40 = trunc i64 %indvars.iv to i32
  %41 = add i32 %5, %40
  %spec.select = select i1 %39, i32 %41, i32 %.031
  %indvars.iv.next = add nuw nsw i64 %indvars.iv, 1
  %42 = load i32, ptr %2, align 4
  %43 = lshr i32 %42, 5
  %44 = zext nneg i32 %43 to i64
  %45 = icmp ult i64 %indvars.iv.next, %44
  br i1 %45, label %9, label %._crit_edge.loopexit, !llvm.loop !53

._crit_edge.loopexit:                             ; preds = %_ZN7Minisat3vecIjiE4pushERKj.exit
  %46 = sext i32 %spec.select to i64
  br label %._crit_edge

._crit_edge:                                      ; preds = %3, %._crit_edge.loopexit
  %.0.lcssa = phi i64 [ %46, %._crit_edge.loopexit ], [ -1, %3 ]
  %.pre-phi = sext i32 %5 to i64
  %47 = load ptr, ptr %0, align 8
  %48 = getelementptr inbounds i32, ptr %47, i64 %.0.lcssa
  %49 = load i32, ptr %48, align 4
  %50 = getelementptr inbounds i32, ptr %47, i64 %.pre-phi
  %51 = load i32, ptr %50, align 4
  store i32 %51, ptr %48, align 4
  %52 = load ptr, ptr %0, align 8
  %53 = getelementptr inbounds i32, ptr %52, i64 %.pre-phi
  store i32 %49, ptr %53, align 4
  %54 = load i32, ptr %2, align 4
  %55 = load i32, ptr %4, align 8
  %56 = getelementptr inbounds i8, ptr %0, i64 12
  %57 = load i32, ptr %56, align 4
  %58 = icmp eq i32 %55, %57
  br i1 %58, label %59, label %._ZN7Minisat3vecIjiE8capacityEi.exit_crit_edge.i24

._ZN7Minisat3vecIjiE8capacityEi.exit_crit_edge.i24: ; preds = %._crit_edge
  %.pre.i25 = load ptr, ptr %0, align 8
  br label %_ZN7Minisat3vecIjiE4pushERKj.exit26

59:                                               ; preds = %._crit_edge
  %60 = ashr i32 %55, 1
  %61 = and i32 %60, -2
  %62 = tail call i32 @llvm.smax.i32(i32 %61, i32 0)
  %63 = add nuw nsw i32 %62, 2
  %64 = sub nsw i32 2147483647, %55
  %65 = icmp ugt i32 %63, %64
  br i1 %65, label %77, label %66

66:                                               ; preds = %59
  %67 = load ptr, ptr %0, align 8
  %68 = add nsw i32 %63, %55
  store i32 %68, ptr %56, align 4
  %69 = sext i32 %68 to i64
  %70 = shl nsw i64 %69, 2
  %71 = tail call ptr @realloc(ptr noundef %67, i64 noundef %70) #26
  store ptr %71, ptr %0, align 8
  %72 = icmp eq ptr %71, null
  br i1 %72, label %73, label %._ZN7Minisat3vecIjiE4pushERKj.exit26_crit_edge

._ZN7Minisat3vecIjiE4pushERKj.exit26_crit_edge:   ; preds = %66
  %.pre33 = load i32, ptr %4, align 8
  br label %_ZN7Minisat3vecIjiE4pushERKj.exit26

73:                                               ; preds = %66
  %74 = tail call ptr @__errno_location() #22
  %75 = load i32, ptr %74, align 4
  %76 = icmp eq i32 %75, 12
  tail call void @llvm.assume(i1 %76)
  br label %77

77:                                               ; preds = %73, %59
  %78 = tail call ptr @__cxa_allocate_exception(i64 1) #23
  tail call void @__cxa_throw(ptr %78, ptr nonnull @_ZTIN7Minisat20OutOfMemoryExceptionE, ptr null) #24
  unreachable

_ZN7Minisat3vecIjiE4pushERKj.exit26:              ; preds = %._ZN7Minisat3vecIjiE4pushERKj.exit26_crit_edge, %._ZN7Minisat3vecIjiE8capacityEi.exit_crit_edge.i24
  %79 = phi i32 [ %55, %._ZN7Minisat3vecIjiE8capacityEi.exit_crit_edge.i24 ], [ %.pre33, %._ZN7Minisat3vecIjiE4pushERKj.exit26_crit_edge ]
  %80 = phi ptr [ %.pre.i25, %._ZN7Minisat3vecIjiE8capacityEi.exit_crit_edge.i24 ], [ %71, %._ZN7Minisat3vecIjiE4pushERKj.exit26_crit_edge ]
  %81 = lshr i32 %54, 5
  %82 = add nsw i32 %79, 1
  store i32 %82, ptr %4, align 8
  %83 = sext i32 %79 to i64
  %84 = getelementptr inbounds i32, ptr %80, i64 %83
  store i32 %81, ptr %84, align 4
  ret void
}